target datalayout = "e-m:e-p270:32:32-p271:32:32-p272:64:64-i64:64-i128:128-f80:128-n8:16:32:64-S128"
target triple = "x86_64-pc-linux-gnu"

%class.CodeBlob = type <{ ptr, ptr, ptr, i32, i32, i32, i32, i32, i32, i16, i16, i8, i8, [2 x i8] }>

@CodeEntryAlignment = external global i64, align 8

; Function Attrs: mustprogress nounwind uwtable
define linkonce_odr hidden noundef i32 @_Z10align_downIilTnNSt9enable_ifIXcvbsr3std11is_integralIT_EE5valueEiE4typeELi0EES1_S1_T0_(i32 noundef %0, i64 noundef %1) #1 comdat {
  %3 = alloca i32, align 4
  %4 = alloca i64, align 8
  %5 = alloca i32, align 4
  store i32 %0, ptr %3, align 4
  store i64 %1, ptr %4, align 8
  %6 = load i32, ptr %3, align 4
  %7 = load i64, ptr %4, align 8
  %8 = call noundef i64 @_ZL14alignment_maskIlTnNSt9enable_ifIXcvbsr3std11is_integralIT_EE5valueEiE4typeELi0EES1_S1_(i64 noundef %7)
  %9 = trunc i64 %8 to i32
  %10 = xor i32 %9, -1
  %11 = and i32 %6, %10
  store i32 %11, ptr %5, align 4
  %12 = load i32, ptr %5, align 4
  ret i32 %12
}

; Function Attrs: mustprogress nounwind uwtable
define linkonce_odr hidden noundef i32 @_Z12checked_castIilET_T0_(i64 noundef %0) #1 comdat {
  %2 = alloca i64, align 8
  %3 = alloca i32, align 4
  store i64 %0, ptr %2, align 8
  %4 = load i64, ptr %2, align 8
  %5 = trunc i64 %4 to i32
  store i32 %5, ptr %3, align 4
  %6 = load i32, ptr %3, align 4
  ret i32 %6
}

; Function Attrs: mustprogress nounwind uwtable
define internal noundef i64 @_ZL14alignment_maskIlTnNSt9enable_ifIXcvbsr3std11is_integralIT_EE5valueEiE4typeELi0EES1_S1_(i64 noundef %0) #1 {
  %2 = alloca i64, align 8
  store i64 %0, ptr %2, align 8
  %3 = load i64, ptr %2, align 8
  %4 = sub nsw i64 %3, 1
  ret i64 %4
}

; Function Attrs: mustprogress nounwind uwtable
define linkonce_odr hidden noundef i32 @_Z8align_upIilTnNSt9enable_ifIXcvbsr3std11is_integralIT_EE5valueEiE4typeELi0EES1_S1_T0_(i32 noundef %0, i64 noundef %1) #1 comdat {
  %3 = alloca i32, align 4
  %4 = alloca i64, align 8
  %5 = alloca i32, align 4
  store i32 %0, ptr %3, align 4
  store i64 %1, ptr %4, align 8
  %6 = load i32, ptr %3, align 4
  %7 = sext i32 %6 to i64
  %8 = load i64, ptr %4, align 8
  %9 = call noundef i64 @_ZL14alignment_maskIlTnNSt9enable_ifIXcvbsr3std11is_integralIT_EE5valueEiE4typeELi0EES1_S1_(i64 noundef %8)
  %10 = add nsw i64 %7, %9
  %11 = call noundef i32 @_Z12checked_castIilET_T0_(i64 noundef %10)
  store i32 %11, ptr %5, align 4
  %12 = load i32, ptr %5, align 4
  %13 = load i64, ptr %4, align 8
  %14 = call noundef i32 @_Z10align_downIilTnNSt9enable_ifIXcvbsr3std11is_integralIT_EE5valueEiE4typeELi0EES1_S1_T0_(i32 noundef %12, i64 noundef %13)
  ret i32 %14
}

; Function Attrs: mustprogress nounwind uwtable
define linkonce_odr hidden noundef i64 @_ZN8CodeHeap11header_sizeEv() #1 comdat align 2 {
  ret i64 8
}

; Function Attrs: mustprogress nounwind uwtable
define hidden noundef i32 @_ZN8CodeBlob17align_code_offsetEi(i32 noundef %0) #1 align 2 {
  %2 = alloca i32, align 4
  %3 = alloca i32, align 4
  store i32 %0, ptr %2, align 4
  %4 = call noundef i64 @_ZN8CodeHeap11header_sizeEv()
  %5 = trunc i64 %4 to i32
  store i32 %5, ptr %3, align 4
  %6 = load i32, ptr %2, align 4
  %7 = load i32, ptr %3, align 4
  %8 = add nsw i32 %6, %7
  %9 = load i64, ptr @CodeEntryAlignment, align 8
  %10 = call noundef i32 @_Z8align_upIilTnNSt9enable_ifIXcvbsr3std11is_integralIT_EE5valueEiE4typeELi0EES1_S1_T0_(i32 noundef %8, i64 noundef %9)
  %11 = load i32, ptr %3, align 4
  %12 = sub nsw i32 %10, %11
  ret i32 %12
}

; Function Attrs: mustprogress nounwind uwtable
define hidden void @_ZN8CodeBlobC2EPKc12CodeBlobKindit(ptr noundef nonnull align 8 dereferenceable(54) %0, ptr noundef %1, i8 noundef zeroext %2, i32 noundef %3, i16 noundef zeroext %4) unnamed_addr #1 align 2 {
  %6 = alloca ptr, align 8
  %7 = alloca ptr, align 8
  %8 = alloca i8, align 1
  %9 = alloca i32, align 4
  %10 = alloca i16, align 2
  store ptr %0, ptr %6, align 8
  store ptr %1, ptr %7, align 8
  store i8 %2, ptr %8, align 1
  store i32 %3, ptr %9, align 4
  store i16 %4, ptr %10, align 2
  %11 = load ptr, ptr %6, align 8
  store ptr getelementptr inbounds inrange(-16, 56) ({ [9 x ptr] }, ptr @_ZTV8CodeBlob, i32 0, i32 0, i32 2), ptr %11, align 8
  %12 = getelementptr inbounds %class.CodeBlob, ptr %11, i32 0, i32 1
  store ptr null, ptr %12, align 8
  %13 = getelementptr inbounds %class.CodeBlob, ptr %11, i32 0, i32 2
  %14 = load ptr, ptr %7, align 8
  store ptr %14, ptr %13, align 8
  %15 = getelementptr inbounds %class.CodeBlob, ptr %11, i32 0, i32 3
  %16 = load i32, ptr %9, align 4
  store i32 %16, ptr %15, align 8
  %17 = getelementptr inbounds %class.CodeBlob, ptr %11, i32 0, i32 4
  store i32 0, ptr %17, align 4
  %18 = getelementptr inbounds %class.CodeBlob, ptr %11, i32 0, i32 5
  %19 = load i16, ptr %10, align 2
  %20 = zext i16 %19 to i32
  %21 = call noundef i32 @_ZN8CodeBlob17align_code_offsetEi(i32 noundef %20)
  store i32 %21, ptr %18, align 8
  %22 = getelementptr inbounds %class.CodeBlob, ptr %11, i32 0, i32 6
  %23 = getelementptr inbounds %class.CodeBlob, ptr %11, i32 0, i32 5
  %24 = load i32, ptr %23, align 8
  store i32 %24, ptr %22, align 4
  %25 = getelementptr inbounds %class.CodeBlob, ptr %11, i32 0, i32 7
  %26 = load i32, ptr %9, align 4
  store i32 %26, ptr %25, align 8
  %27 = getelementptr inbounds %class.CodeBlob, ptr %11, i32 0, i32 8
  store i32 0, ptr %27, align 4
  %28 = getelementptr inbounds %class.CodeBlob, ptr %11, i32 0, i32 9
  %29 = load i16, ptr %10, align 2
  store i16 %29, ptr %28, align 8
  %30 = getelementptr inbounds %class.CodeBlob, ptr %11, i32 0, i32 10
  store i16 -1, ptr %30, align 2
  %31 = getelementptr inbounds %class.CodeBlob, ptr %11, i32 0, i32 11
  %32 = load i8, ptr %8, align 1
  store i8 %32, ptr %31, align 4
  %33 = getelementptr inbounds %class.CodeBlob, ptr %11, i32 0, i32 12
  store i8 0, ptr %33, align 1
  ret void
}