; Function Attrs: mustprogress nofree norecurse nosync nounwind willreturn memory(read, argmem: write, inaccessiblemem: none) uwtable
define hidden void @_ZN8CodeBlobC2EPKc12CodeBlobKindit(ptr nocapture noundef nonnull writeonly align 8 dereferenceable(54) %0, ptr noundef %1, i8 noundef zeroext %2, i32 noundef %3, i16 noundef zeroext %4) unnamed_addr #3 align 2 {
  store ptr getelementptr inbounds inrange(-16, 56) (i8, ptr @_ZTV8CodeBlob, i64 16), ptr %0, align 8
  %6 = getelementptr inbounds i8, ptr %0, i64 8
  store ptr null, ptr %6, align 8
  %7 = getelementptr inbounds i8, ptr %0, i64 16
  store ptr %1, ptr %7, align 8
  %8 = getelementptr inbounds i8, ptr %0, i64 24
  store i32 %3, ptr %8, align 8
  %9 = getelementptr inbounds i8, ptr %0, i64 28
  store i32 0, ptr %9, align 4
  %10 = getelementptr inbounds i8, ptr %0, i64 32
  %11 = zext i16 %4 to i32
  %12 = load i64, ptr @CodeEntryAlignment, align 8
  %13 = trunc i64 %12 to i32
  %14 = add nuw nsw i32 %11, 7
  %15 = add i32 %14, %13
  %16 = sub i32 0, %13
  %17 = and i32 %15, %16
  %18 = add nsw i32 %17, -8
  store i32 %18, ptr %10, align 8
  %19 = getelementptr inbounds i8, ptr %0, i64 36
  store i32 %18, ptr %19, align 4
  %20 = getelementptr inbounds i8, ptr %0, i64 40
  store i32 %3, ptr %20, align 8
  %21 = getelementptr inbounds i8, ptr %0, i64 44
  store i32 0, ptr %21, align 4
  %22 = getelementptr inbounds i8, ptr %0, i64 48
  store i16 %4, ptr %22, align 8
  %23 = getelementptr inbounds i8, ptr %0, i64 50
  store i16 -1, ptr %23, align 2
  %24 = getelementptr inbounds i8, ptr %0, i64 52
  store i8 %2, ptr %24, align 4
  %25 = getelementptr inbounds i8, ptr %0, i64 53
  store i8 0, ptr %25, align 1
  ret void
}